; Function Attrs: mustprogress nounwind uwtable
define hidden void @_ZN13defined_namesD2Ev(ptr noundef nonnull readonly align 8 captures(none) dereferenceable(16) %0) unnamed_addr #4 align 2 personality ptr @__gxx_personality_v0 {
  %2 = load ptr, ptr %0, align 8, !tbaa !225
  %3 = icmp eq ptr %2, null
  br i1 %3, label %_Z7deallocIN13defined_names4implEEvPT_.exit, label %4

4:                                                ; preds = %1
  %5 = load ptr, ptr %2, align 8, !tbaa !3
  %6 = load ptr, ptr %5, align 8
  tail call void %6(ptr noundef nonnull align 8 dereferenceable(128) %2) #19
  invoke void @_ZN6memory10deallocateEPv(ptr noundef nonnull %2)
          to label %_Z7deallocIN13defined_names4implEEvPT_.exit unwind label %13

_Z7deallocIN13defined_names4implEEvPT_.exit:      ; preds = %1, %4
  %7 = getelementptr inbounds nuw i8, ptr %0, i64 8
  %8 = load ptr, ptr %7, align 8, !tbaa !229
  %9 = icmp eq ptr %8, null
  br i1 %9, label %_Z7deallocIN13defined_names8pos_implEEvPT_.exit, label %10

10:                                               ; preds = %_Z7deallocIN13defined_names4implEEvPT_.exit
  %11 = load ptr, ptr %8, align 8, !tbaa !3
  %12 = load ptr, ptr %11, align 8
  tail call void %12(ptr noundef nonnull align 8 dereferenceable(128) %8) #19
  invoke void @_ZN6memory10deallocateEPv(ptr noundef nonnull %8)
          to label %_Z7deallocIN13defined_names8pos_implEEvPT_.exit unwind label %13

_Z7deallocIN13defined_names8pos_implEEvPT_.exit:  ; preds = %_Z7deallocIN13defined_names4implEEvPT_.exit, %10
  ret void

13:                                               ; preds = %10, %4
  %14 = landingpad { ptr, i32 }
          catch ptr null
  %15 = extractvalue { ptr, i32 } %14, 0
  tail call void @__clang_call_terminate(ptr %15) #20
  unreachable
}